Certificate:
    Data:
        Version: 3 (0x2)
        Serial Number: 4100 (0x1004)
    Signature Algorithm: sha256WithRSAEncryption
        Issuer: C=US, ST=NC, L=Raleigh, O=NCSU, OU=CSC, CN=574/emailAddress=harfoush@cs.ncsu.edu
        Validity
            Not Before: Nov 19 15:43:33 2015 GMT
            Not After : Nov 18 15:43:33 2016 GMT
        Subject: C=US, ST=North Carolina, L=Raleigh, O=NC State, OU=Engineering, CN=CSC 574/emailAddress=kaweston@ncsu.edu
        Subject Public Key Info:
            Public Key Algorithm: rsaEncryption
                Public-Key: (1024 bit)
                Modulus:
                    00:e2:c1:00:cd:5a:ff:56:ae:d3:65:5b:8e:b5:96:
                    ab:e6:d7:d5:e3:b5:42:60:43:28:66:2f:6b:80:e8:
                    58:b5:c2:c9:a5:25:22:1f:8d:4d:33:29:59:3a:8a:
                    1d:f2:f9:a8:6c:4d:2f:54:7e:69:aa:9f:3e:f5:1c:
                    57:81:cb:89:f6:04:56:5f:c3:2f:9d:44:2a:1b:04:
                    cd:29:2d:de:2c:f3:da:8a:43:85:a9:80:c1:35:b8:
                    22:a7:a0:1f:80:74:50:f5:f7:36:9c:d8:81:bc:e0:
                    2f:a0:78:ba:5d:85:e1:59:ec:dd:d5:11:e9:7d:6e:
                    b6:c1:a9:2f:28:cf:86:2a:bb
                Exponent: 65537 (0x10001)
        X509v3 extensions:
            X509v3 Basic Constraints: 
                CA:FALSE
            Netscape Comment: 
                OpenSSL Generated Certificate
            X509v3 Subject Key Identifier: 
                3D:56:2F:F4:C7:B6:7D:F1:4C:E5:D7:BD:48:50:D0:6E:7A:FE:E1:AB
            X509v3 Authority Key Identifier: 
                keyid:AE:85:18:73:51:F3:9C:38:22:0B:55:8C:52:2F:C2:95:06:F9:9D:EF

    Signature Algorithm: sha256WithRSAEncryption
         1c:11:fc:e1:51:20:b5:42:5e:38:7b:15:0b:1d:b9:dc:b0:b0:
         d4:f4:00:c6:b3:63:e6:5c:05:17:3f:d7:ec:7e:b9:02:00:e1:
         2f:1a:04:5e:94:f0:62:cf:8c:94:14:6c:c0:82:8b:65:1d:84:
         5d:62:66:80:5b:c2:56:37:d3:04:3d:89:db:14:cb:10:db:2b:
         4b:30:c3:be:45:ca:03:6e:ce:86:04:b8:43:f5:f2:cb:37:bd:
         a2:41:1d:ec:69:5b:9b:7b:03:db:41:c0:df:06:51:bd:bd:02:
         4a:c3:9f:0a:ec:87:3a:df:82:4d:5a:f1:e9:c5:3d:04:a1:d1:
         15:fd
-----BEGIN CERTIFICATE-----
MIIDBDCCAm2gAwIBAgICEAQwDQYJKoZIhvcNAQELBQAwfDELMAkGA1UEBhMCVVMx
CzAJBgNVBAgMAk5DMRAwDgYDVQQHDAdSYWxlaWdoMQ0wCwYDVQQKDAROQ1NVMQww
CgYDVQQLDANDU0MxDDAKBgNVBAMMAzU3NDEjMCEGCSqGSIb3DQEJARYUaGFyZm91
c2hAY3MubmNzdS5lZHUwHhcNMTUxMTE5MTU0MzMzWhcNMTYxMTE4MTU0MzMzWjCB
lTELMAkGA1UEBhMCVVMxFzAVBgNVBAgMDk5vcnRoIENhcm9saW5hMRAwDgYDVQQH
DAdSYWxlaWdoMREwDwYDVQQKDAhOQyBTdGF0ZTEUMBIGA1UECwwLRW5naW5lZXJp
bmcxEDAOBgNVBAMMB0NTQyA1NzQxIDAeBgkqhkiG9w0BCQEWEWthd2VzdG9uQG5j
c3UuZWR1MIGfMA0GCSqGSIb3DQEBAQUAA4GNADCBiQKBgQDiwQDNWv9WrtNlW461
lqvm19XjtUJgQyhmL2uA6Fi1wsmlJSIfjU0zKVk6ih3y+ahsTS9Ufmmqnz71HFeB
y4n2BFZfwy+dRCobBM0pLd4s89qKQ4WpgME1uCKnoB+AdFD19zac2IG84C+geLpd
heFZ7N3VEel9brbBqS8oz4YquwIDAQABo3sweTAJBgNVHRMEAjAAMCwGCWCGSAGG
+EIBDQQfFh1PcGVuU1NMIEdlbmVyYXRlZCBDZXJ0aWZpY2F0ZTAdBgNVHQ4EFgQU
PVYv9Me2ffFM5de9SFDQbnr+4aswHwYDVR0jBBgwFoAUroUYc1HznDgiC1WMUi/C
lQb5ne8wDQYJKoZIhvcNAQELBQADgYEAHBH84VEgtUJeOHsVCx253LCw1PQAxrNj
5lwFFz/X7H65AgDhLxoEXpTwYs+MlBRswIKLZR2EXWJmgFvCVjfTBD2J2xTLENsr
SzDDvkXKA27OhgS4Q/Xyyze9okEd7Glbm3sD20HA3wZRvb0CSsOfCuyHOt+CTVrx
6cU9BKHRFf0=
-----END CERTIFICATE-----
