Certificate:
    Data:
        Version: 3 (0x2)
        Serial Number: 4105 (0x1009)
    Signature Algorithm: sha256WithRSAEncryption
        Issuer: C=US, ST=NC, L=Raleigh, O=NCSU, OU=CSC, CN=574/emailAddress=harfoush@cs.ncsu.edu
        Validity
            Not Before: Nov 19 15:43:36 2015 GMT
            Not After : Nov 18 15:43:36 2016 GMT
        Subject: C=US, ST=North Carolina State, L=Raleigh, O=NCSU, OU=ECE, CN=Mengqiu/emailAddress=mdong3@ncsu.edu
        Subject Public Key Info:
            Public Key Algorithm: rsaEncryption
                Public-Key: (1024 bit)
                Modulus:
                    00:cc:fe:c2:e8:51:a4:f3:64:f3:6e:12:68:37:d9:
                    35:cd:07:b1:e9:24:28:84:db:c0:30:ba:c2:71:55:
                    82:e3:8f:ce:a9:63:1f:51:6a:02:b7:49:96:73:a0:
                    95:c6:ed:dc:56:5f:79:91:22:69:3a:f1:05:bd:f0:
                    2a:d9:43:39:e3:b2:4e:9c:a6:4d:62:44:18:90:fc:
                    a3:19:78:5a:20:07:e2:73:e1:a5:da:1d:26:53:53:
                    2e:e0:7f:9a:ef:76:f5:f7:80:73:76:82:29:a8:bd:
                    33:5e:c1:96:b0:6c:fa:e1:4a:30:33:ac:35:86:9c:
                    3b:7f:5c:48:35:88:fc:7f:f7
                Exponent: 65537 (0x10001)
        X509v3 extensions:
            X509v3 Basic Constraints: 
                CA:FALSE
            Netscape Comment: 
                OpenSSL Generated Certificate
            X509v3 Subject Key Identifier: 
                87:E4:54:CD:92:9F:3D:47:87:E0:F4:03:7D:BD:F5:7A:1B:1E:7E:CC
            X509v3 Authority Key Identifier: 
                keyid:AE:85:18:73:51:F3:9C:38:22:0B:55:8C:52:2F:C2:95:06:F9:9D:EF

    Signature Algorithm: sha256WithRSAEncryption
         8b:e7:29:52:ea:1a:f0:50:2c:7d:01:2e:11:cf:31:16:fd:19:
         5d:f9:33:ca:fb:3b:c4:02:51:e3:6f:be:e3:e5:b7:d4:86:66:
         33:80:46:3e:e5:09:61:1c:0f:fc:99:79:80:7b:50:60:23:6b:
         e6:9d:5b:09:50:dc:c7:2f:a6:88:21:14:46:8e:93:97:4c:6d:
         fa:b1:d0:9c:ac:db:e7:19:75:b8:07:fd:7c:d4:d3:b3:90:e9:
         d2:5b:1e:8a:11:24:eb:04:76:d7:7c:6b:01:23:6c:36:a3:99:
         04:6a:df:ad:1d:73:b7:42:83:22:39:5c:82:d2:db:92:ff:83:
         81:92
-----BEGIN CERTIFICATE-----
MIIC/DCCAmWgAwIBAgICEAkwDQYJKoZIhvcNAQELBQAwfDELMAkGA1UEBhMCVVMx
CzAJBgNVBAgMAk5DMRAwDgYDVQQHDAdSYWxlaWdoMQ0wCwYDVQQKDAROQ1NVMQww
CgYDVQQLDANDU0MxDDAKBgNVBAMMAzU3NDEjMCEGCSqGSIb3DQEJARYUaGFyZm91
c2hAY3MubmNzdS5lZHUwHhcNMTUxMTE5MTU0MzM2WhcNMTYxMTE4MTU0MzM2WjCB
jTELMAkGA1UEBhMCVVMxHTAbBgNVBAgTFE5vcnRoIENhcm9saW5hIFN0YXRlMRAw
DgYDVQQHEwdSYWxlaWdoMQ0wCwYDVQQKEwROQ1NVMQwwCgYDVQQLEwNFQ0UxEDAO
BgNVBAMTB01lbmdxaXUxHjAcBgkqhkiG9w0BCQEWD21kb25nM0BuY3N1LmVkdTCB
nzANBgkqhkiG9w0BAQEFAAOBjQAwgYkCgYEAzP7C6FGk82TzbhJoN9k1zQex6SQo
hNvAMLrCcVWC44/OqWMfUWoCt0mWc6CVxu3cVl95kSJpOvEFvfAq2UM547JOnKZN
YkQYkPyjGXhaIAfic+Gl2h0mU1Mu4H+a73b194BzdoIpqL0zXsGWsGz64UowM6w1
hpw7f1xINYj8f/cCAwEAAaN7MHkwCQYDVR0TBAIwADAsBglghkgBhvhCAQ0EHxYd
T3BlblNTTCBHZW5lcmF0ZWQgQ2VydGlmaWNhdGUwHQYDVR0OBBYEFIfkVM2Snz1H
h+D0A3299XobHn7MMB8GA1UdIwQYMBaAFK6FGHNR85w4IgtVjFIvwpUG+Z3vMA0G
CSqGSIb3DQEBCwUAA4GBAIvnKVLqGvBQLH0BLhHPMRb9GV35M8r7O8QCUeNvvuPl
t9SGZjOARj7lCWEcD/yZeYB7UGAja+adWwlQ3McvpoghFEaOk5dMbfqx0Jys2+cZ
dbgH/XzU07OQ6dJbHooRJOsEdtd8awEjbDajmQRq360dc7dCgyI5XILS25L/g4GS
-----END CERTIFICATE-----
