Certificate:
    Data:
        Version: 3 (0x2)
        Serial Number: 4107 (0x100b)
    Signature Algorithm: sha256WithRSAEncryption
        Issuer: C=US, ST=NC, L=Raleigh, O=NCSU, OU=CSC, CN=574/emailAddress=harfoush@cs.ncsu.edu
        Validity
            Not Before: Nov 20 01:24:24 2015 GMT
            Not After : Nov 19 01:24:24 2016 GMT
        Subject: C=US, ST=North carolina, L=Raleigh, O=NCSU, OU=CSC574, CN=Prashant/emailAddress=pkulkar4@ncsu.edu
        Subject Public Key Info:
            Public Key Algorithm: rsaEncryption
                Public-Key: (1024 bit)
                Modulus:
                    00:cb:e5:60:82:b4:25:f5:00:46:74:94:45:6c:f6:
                    80:b5:fe:16:8f:15:21:b6:92:0f:c4:59:09:8c:f6:
                    2b:1c:e9:b6:43:dd:ef:51:a2:3a:e7:d3:56:dd:e1:
                    7f:7b:6a:33:0e:7a:73:0f:88:7f:8c:1a:71:80:83:
                    12:00:7c:07:7d:b1:70:9d:15:6a:15:eb:91:09:37:
                    28:47:0b:b2:df:7e:d9:6d:d8:a4:96:1e:ad:5b:cd:
                    1c:f4:58:bd:a5:0e:13:da:0c:02:97:d3:62:f4:73:
                    a6:5d:aa:c4:41:48:03:05:e8:26:48:3c:74:12:c7:
                    a2:58:5a:48:45:88:61:f9:b9
                Exponent: 65537 (0x10001)
        X509v3 extensions:
            X509v3 Basic Constraints: 
                CA:FALSE
            Netscape Comment: 
                OpenSSL Generated Certificate
            X509v3 Subject Key Identifier: 
                0C:B1:30:74:6F:F0:FF:33:EF:68:1B:26:07:E4:30:D3:FC:CB:E7:DB
            X509v3 Authority Key Identifier: 
                keyid:AE:85:18:73:51:F3:9C:38:22:0B:55:8C:52:2F:C2:95:06:F9:9D:EF

    Signature Algorithm: sha256WithRSAEncryption
         12:eb:90:45:21:19:ad:61:f3:27:08:c7:4b:12:59:0b:d4:54:
         d6:28:e1:3c:3e:13:67:d2:74:11:11:94:dc:af:29:db:7a:3c:
         60:d9:83:d9:5f:52:7f:60:b9:9a:44:4e:02:79:19:0c:3f:01:
         12:65:5b:8a:48:da:02:b5:8c:ce:6c:17:b5:07:b4:a9:e9:79:
         c8:01:c7:ab:59:1f:32:b8:b7:8e:11:45:87:77:8f:d5:24:95:
         16:89:2c:51:23:57:4d:1d:9b:08:32:18:13:71:09:3d:30:44:
         1a:db:59:c8:e9:53:8c:6e:4c:31:1b:1b:16:13:9e:7b:58:2d:
         be:dd
-----BEGIN CERTIFICATE-----
MIIC/DCCAmWgAwIBAgICEAswDQYJKoZIhvcNAQELBQAwfDELMAkGA1UEBhMCVVMx
CzAJBgNVBAgMAk5DMRAwDgYDVQQHDAdSYWxlaWdoMQ0wCwYDVQQKDAROQ1NVMQww
CgYDVQQLDANDU0MxDDAKBgNVBAMMAzU3NDEjMCEGCSqGSIb3DQEJARYUaGFyZm91
c2hAY3MubmNzdS5lZHUwHhcNMTUxMTIwMDEyNDI0WhcNMTYxMTE5MDEyNDI0WjCB
jTELMAkGA1UEBhMCVVMxFzAVBgNVBAgMDk5vcnRoIGNhcm9saW5hMRAwDgYDVQQH
DAdSYWxlaWdoMQ0wCwYDVQQKDAROQ1NVMQ8wDQYDVQQLDAZDU0M1NzQxETAPBgNV
BAMMCFByYXNoYW50MSAwHgYJKoZIhvcNAQkBFhFwa3Vsa2FyNEBuY3N1LmVkdTCB
nzANBgkqhkiG9w0BAQEFAAOBjQAwgYkCgYEAy+VggrQl9QBGdJRFbPaAtf4WjxUh
tpIPxFkJjPYrHOm2Q93vUaI659NW3eF/e2ozDnpzD4h/jBpxgIMSAHwHfbFwnRVq
FeuRCTcoRwuy337Zbdiklh6tW80c9Fi9pQ4T2gwCl9Ni9HOmXarEQUgDBegmSDx0
EseiWFpIRYhh+bkCAwEAAaN7MHkwCQYDVR0TBAIwADAsBglghkgBhvhCAQ0EHxYd
T3BlblNTTCBHZW5lcmF0ZWQgQ2VydGlmaWNhdGUwHQYDVR0OBBYEFAyxMHRv8P8z
72gbJgfkMNP8y+fbMB8GA1UdIwQYMBaAFK6FGHNR85w4IgtVjFIvwpUG+Z3vMA0G
CSqGSIb3DQEBCwUAA4GBABLrkEUhGa1h8ycIx0sSWQvUVNYo4Tw+E2fSdBERlNyv
Kdt6PGDZg9lfUn9guZpETgJ5GQw/ARJlW4pI2gK1jM5sF7UHtKnpecgBx6tZHzK4
t44RRYd3j9UklRaJLFEjV00dmwgyGBNxCT0wRBrbWcjpU4xuTDEbGxYTnntYLb7d
-----END CERTIFICATE-----
