Certificate:
    Data:
        Version: 3 (0x2)
        Serial Number: 4118 (0x1016)
    Signature Algorithm: sha256WithRSAEncryption
        Issuer: C=US, ST=NC, L=Raleigh, O=NCSU, OU=CSC, CN=574/emailAddress=harfoush@cs.ncsu.edu
        Validity
            Not Before: Nov 23 18:27:41 2015 GMT
            Not After : Nov 22 18:27:41 2016 GMT
        Subject: C=US, ST=NORTH CAROLINA, L=RALEIGH, O=NCSU, OU=ECE-574, CN=SARTHAK SHETTY/emailAddress=spshetty@ncsu.edu
        Subject Public Key Info:
            Public Key Algorithm: rsaEncryption
                Public-Key: (1024 bit)
                Modulus:
                    00:d5:dc:ad:ce:3e:3f:98:a5:3d:81:00:a2:28:b7:
                    16:af:6d:5f:50:41:5f:08:69:84:2b:4e:63:42:b0:
                    36:e0:2c:fa:48:a5:37:9c:f8:80:10:7c:7c:ea:98:
                    b1:45:f1:b0:75:b4:4f:d7:45:ab:ad:3b:da:64:c6:
                    c3:b0:fa:e4:8a:99:b5:71:1a:18:77:47:cd:c8:d5:
                    e3:b3:ce:4d:31:7e:3b:d6:a7:1a:93:dd:d1:f5:60:
                    b0:60:2b:26:0e:a4:71:97:66:3b:64:c0:04:2a:39:
                    b4:75:10:43:1c:fb:cf:93:45:ae:73:8a:c9:70:f6:
                    fb:ff:f3:88:58:0c:60:3d:1f
                Exponent: 65537 (0x10001)
        X509v3 extensions:
            X509v3 Basic Constraints: 
                CA:FALSE
            Netscape Comment: 
                OpenSSL Generated Certificate
            X509v3 Subject Key Identifier: 
                52:6B:C7:34:64:E6:64:8F:D2:90:E5:1B:A5:7F:9B:2B:9F:FA:F3:EB
            X509v3 Authority Key Identifier: 
                keyid:AE:85:18:73:51:F3:9C:38:22:0B:55:8C:52:2F:C2:95:06:F9:9D:EF

    Signature Algorithm: sha256WithRSAEncryption
         78:4a:7b:82:3b:76:22:3f:5b:3b:9d:02:3e:b1:30:88:d0:8d:
         d4:4e:6b:0e:76:95:e2:7d:df:7f:5a:d0:4e:cc:de:51:55:4a:
         4e:14:e4:44:99:ad:f7:dd:e4:c5:02:24:eb:8b:23:0a:05:a2:
         f4:a9:6c:c8:5a:95:87:f2:d5:8e:57:ee:f1:ff:04:a7:3f:4d:
         c6:cf:8d:90:88:6e:df:56:2a:62:f8:11:3f:5c:66:0b:c2:b6:
         cd:d5:44:e2:bc:81:52:5e:64:c7:7a:a9:d2:fe:81:56:cb:e4:
         05:0e:57:70:a1:6b:f8:4c:14:a7:45:a6:9d:5b:80:1a:bc:7b:
         9e:2d
-----BEGIN CERTIFICATE-----
MIIDAzCCAmygAwIBAgICEBYwDQYJKoZIhvcNAQELBQAwfDELMAkGA1UEBhMCVVMx
CzAJBgNVBAgMAk5DMRAwDgYDVQQHDAdSYWxlaWdoMQ0wCwYDVQQKDAROQ1NVMQww
CgYDVQQLDANDU0MxDDAKBgNVBAMMAzU3NDEjMCEGCSqGSIb3DQEJARYUaGFyZm91
c2hAY3MubmNzdS5lZHUwHhcNMTUxMTIzMTgyNzQxWhcNMTYxMTIyMTgyNzQxWjCB
lDELMAkGA1UEBhMCVVMxFzAVBgNVBAgMDk5PUlRIIENBUk9MSU5BMRAwDgYDVQQH
DAdSQUxFSUdIMQ0wCwYDVQQKDAROQ1NVMRAwDgYDVQQLDAdFQ0UtNTc0MRcwFQYD
VQQDDA5TQVJUSEFLIFNIRVRUWTEgMB4GCSqGSIb3DQEJARYRc3BzaGV0dHlAbmNz
dS5lZHUwgZ8wDQYJKoZIhvcNAQEBBQADgY0AMIGJAoGBANXcrc4+P5ilPYEAoii3
Fq9tX1BBXwhphCtOY0KwNuAs+kilN5z4gBB8fOqYsUXxsHW0T9dFq6072mTGw7D6
5IqZtXEaGHdHzcjV47POTTF+O9anGpPd0fVgsGArJg6kcZdmO2TABCo5tHUQQxz7
z5NFrnOKyXD2+//ziFgMYD0fAgMBAAGjezB5MAkGA1UdEwQCMAAwLAYJYIZIAYb4
QgENBB8WHU9wZW5TU0wgR2VuZXJhdGVkIENlcnRpZmljYXRlMB0GA1UdDgQWBBRS
a8c0ZOZkj9KQ5Rulf5srn/rz6zAfBgNVHSMEGDAWgBSuhRhzUfOcOCILVYxSL8KV
Bvmd7zANBgkqhkiG9w0BAQsFAAOBgQB4SnuCO3YiP1s7nQI+sTCI0I3UTmsOdpXi
fd9/WtBOzN5RVUpOFOREma333eTFAiTriyMKBaL0qWzIWpWH8tWOV+7x/wSnP03G
z42QiG7fVipi+BE/XGYLwrbN1UTivIFSXmTHeqnS/oFWy+QFDldwoWv4TBSnRaad
W4AavHueLQ==
-----END CERTIFICATE-----
