Certificate:
    Data:
        Version: 3 (0x2)
        Serial Number: 4119 (0x1017)
    Signature Algorithm: sha256WithRSAEncryption
        Issuer: C=US, ST=NC, L=Raleigh, O=NCSU, OU=CSC, CN=574/emailAddress=harfoush@cs.ncsu.edu
        Validity
            Not Before: Nov 23 18:27:41 2015 GMT
            Not After : Nov 22 18:27:41 2016 GMT
        Subject: C=US, ST=North Carolina, L=Raleigh, O=North Carolina State University, OU=Computer Science, CN=*.ncsu.edu/emailAddress=dgupta8@ncsu.edu
        Subject Public Key Info:
            Public Key Algorithm: rsaEncryption
                Public-Key: (1024 bit)
                Modulus:
                    00:cf:1d:ff:68:76:c7:62:e5:76:01:50:40:c1:20:
                    13:14:21:0e:57:ec:bb:4e:48:6b:2e:d9:cc:e9:b2:
                    55:e1:67:3c:75:b2:6b:d5:7a:ce:20:e2:35:5f:d7:
                    9f:9f:c6:20:7d:95:ae:cc:4b:85:3f:dd:8c:f0:b0:
                    25:7e:d1:98:53:41:1e:1a:f1:da:c5:e7:94:dd:8a:
                    10:3b:19:0d:cd:b7:d4:43:03:88:1f:64:e5:20:5f:
                    f7:96:d9:d7:67:2a:0e:af:7a:fe:ff:1b:ee:e8:8d:
                    68:55:a7:3a:5d:b4:7b:cf:e0:64:9a:4d:3a:1b:4e:
                    cf:be:cb:e7:1d:c1:9a:7a:eb
                Exponent: 65537 (0x10001)
        X509v3 extensions:
            X509v3 Basic Constraints: 
                CA:FALSE
            Netscape Comment: 
                OpenSSL Generated Certificate
            X509v3 Subject Key Identifier: 
                69:40:AA:4B:D4:09:C0:C0:4C:57:24:FC:B6:92:7C:0A:7B:9C:33:60
            X509v3 Authority Key Identifier: 
                keyid:AE:85:18:73:51:F3:9C:38:22:0B:55:8C:52:2F:C2:95:06:F9:9D:EF

    Signature Algorithm: sha256WithRSAEncryption
         89:87:5a:da:15:0d:d1:24:dd:06:9c:1f:9e:6d:32:14:55:a0:
         51:38:e5:3f:6a:e9:be:e1:1c:91:9c:1d:ce:e6:c1:8f:35:a0:
         e6:92:11:4d:ad:b3:a7:21:33:59:ca:20:a7:15:f5:2a:2b:01:
         ad:a3:6f:3b:c5:0c:31:c3:16:5f:d9:bf:34:53:64:a2:5d:8b:
         2e:a4:1d:9a:02:ac:56:ae:8d:d5:6a:36:ab:35:24:09:dc:2f:
         fd:5e:2a:e5:ce:97:01:43:a7:fe:b4:15:87:45:82:2f:1d:1a:
         ee:96:8d:7f:8c:95:57:06:3c:dd:fa:ea:f8:7c:a4:28:c8:b0:
         e5:ec
-----BEGIN CERTIFICATE-----
MIIDIjCCAougAwIBAgICEBcwDQYJKoZIhvcNAQELBQAwfDELMAkGA1UEBhMCVVMx
CzAJBgNVBAgMAk5DMRAwDgYDVQQHDAdSYWxlaWdoMQ0wCwYDVQQKDAROQ1NVMQww
CgYDVQQLDANDU0MxDDAKBgNVBAMMAzU3NDEjMCEGCSqGSIb3DQEJARYUaGFyZm91
c2hAY3MubmNzdS5lZHUwHhcNMTUxMTIzMTgyNzQxWhcNMTYxMTIyMTgyNzQxWjCB
szELMAkGA1UEBhMCVVMxFzAVBgNVBAgMDk5vcnRoIENhcm9saW5hMRAwDgYDVQQH
DAdSYWxlaWdoMSgwJgYDVQQKDB9Ob3J0aCBDYXJvbGluYSBTdGF0ZSBVbml2ZXJz
aXR5MRkwFwYDVQQLDBBDb21wdXRlciBTY2llbmNlMRMwEQYDVQQDDAoqLm5jc3Uu
ZWR1MR8wHQYJKoZIhvcNAQkBFhBkZ3VwdGE4QG5jc3UuZWR1MIGfMA0GCSqGSIb3
DQEBAQUAA4GNADCBiQKBgQDPHf9odsdi5XYBUEDBIBMUIQ5X7LtOSGsu2czpslXh
Zzx1smvVes4g4jVf15+fxiB9la7MS4U/3YzwsCV+0ZhTQR4a8drF55TdihA7GQ3N
t9RDA4gfZOUgX/eW2ddnKg6vev7/G+7ojWhVpzpdtHvP4GSaTTobTs++y+cdwZp6
6wIDAQABo3sweTAJBgNVHRMEAjAAMCwGCWCGSAGG+EIBDQQfFh1PcGVuU1NMIEdl
bmVyYXRlZCBDZXJ0aWZpY2F0ZTAdBgNVHQ4EFgQUaUCqS9QJwMBMVyT8tpJ8Cnuc
M2AwHwYDVR0jBBgwFoAUroUYc1HznDgiC1WMUi/ClQb5ne8wDQYJKoZIhvcNAQEL
BQADgYEAiYda2hUN0STdBpwfnm0yFFWgUTjlP2rpvuEckZwdzubBjzWg5pIRTa2z
pyEzWcogpxX1KisBraNvO8UMMcMWX9m/NFNkol2LLqQdmgKsVq6N1Wo2qzUkCdwv
/V4q5c6XAUOn/rQVh0WCLx0a7paNf4yVVwY83frq+HykKMiw5ew=
-----END CERTIFICATE-----
